target datalayout = "e-m:e-p270:32:32-p271:32:32-p272:64:64-i64:64-i128:128-f80:128-n8:16:32:64-S128"
target triple = "x86_64-pc-linux-gnu"

; Function Attrs: nounwind uwtable
define hidden zeroext i16 @outStream_writeLong(ptr noundef %0, i64 noundef %1) #0 {
  %3 = alloca ptr, align 8
  %4 = alloca i64, align 8
  store ptr %0, ptr %3, align 8
  store i64 %1, ptr %4, align 8
  %5 = load i64, ptr %4, align 8
  %6 = shl i64 %5, 56
  %7 = load i64, ptr %4, align 8
  %8 = and i64 %7, 65280
  %9 = shl i64 %8, 40
  %10 = or i64 %6, %9
  %11 = load i64, ptr %4, align 8
  %12 = and i64 %11, 16711680
  %13 = shl i64 %12, 24
  %14 = or i64 %10, %13
  %15 = load i64, ptr %4, align 8
  %16 = and i64 %15, 4278190080
  %17 = shl i64 %16, 8
  %18 = or i64 %14, %17
  %19 = load i64, ptr %4, align 8
  %20 = and i64 %19, 1095216660480
  %21 = ashr i64 %20, 8
  %22 = or i64 %18, %21
  %23 = load i64, ptr %4, align 8
  %24 = and i64 %23, 280375465082880
  %25 = ashr i64 %24, 24
  %26 = or i64 %22, %25
  %27 = load i64, ptr %4, align 8
  %28 = and i64 %27, 71776119061217280
  %29 = ashr i64 %28, 40
  %30 = or i64 %26, %29
  %31 = load i64, ptr %4, align 8
  %32 = and i64 %31, -72057594037927936
  %33 = lshr i64 %32, 56
  %34 = or i64 %30, %33
  store i64 %34, ptr %4, align 8
  %35 = load ptr, ptr %3, align 8
  %36 = call zeroext i16 @writeBytes(ptr noundef %35, ptr noundef %4, i32 noundef 8)
  ret i16 %36
}

; Function Attrs: nounwind uwtable
define hidden zeroext i16 @outStream_writeFieldID(ptr noundef %0, ptr noundef %1) #0 {
  %3 = alloca ptr, align 8
  %4 = alloca ptr, align 8
  store ptr %0, ptr %3, align 8
  store ptr %1, ptr %4, align 8
  %5 = load ptr, ptr %3, align 8
  %6 = load ptr, ptr %4, align 8
  %7 = ptrtoint ptr %6 to i64
  %8 = call zeroext i16 @outStream_writeLong(ptr noundef %5, i64 noundef %7)
  ret i16 %8
}