; Function Attrs: nounwind uwtable
define hidden zeroext i16 @outStream_writeFieldID(ptr nocapture noundef %0, ptr noundef %1) local_unnamed_addr #0 {
  %3 = alloca i64, align 8
  %4 = ptrtoint ptr %1 to i64
  call void @llvm.lifetime.start.p0(i64 8, ptr nonnull %3)
  %5 = tail call i64 @llvm.bswap.i64(i64 %4)
  store i64 %5, ptr %3, align 8
  %6 = call fastcc zeroext i16 @writeBytes(ptr noundef %0, ptr noundef nonnull %3, i32 noundef 8)
  call void @llvm.lifetime.end.p0(i64 8, ptr nonnull %3)
  ret i16 %6
}